; Function Attrs: nounwind uwtable
define noalias noundef ptr @Gia_ManDeriveDivs(ptr noundef readonly captures(none) %0, i32 noundef %1) local_unnamed_addr #0 {
  %3 = getelementptr i8, ptr %0, i64 4
  %.val10 = load i32, ptr %3, align 4, !tbaa !81
  %4 = sdiv i32 %.val10, %1
  %5 = tail call noalias dereferenceable_or_null(16) ptr @malloc(i64 noundef 16) #31
  %6 = add i32 %4, -1
  %or.cond.i = icmp ult i32 %6, 7
  %spec.store.select.i = select i1 %or.cond.i, i32 8, i32 %4
  %7 = getelementptr inbounds nuw i8, ptr %5, i64 4
  store i32 0, ptr %7, align 4, !tbaa !73
  store i32 %spec.store.select.i, ptr %5, align 8, !tbaa !75
  %.not.i = icmp eq i32 %spec.store.select.i, 0
  br i1 %.not.i, label %Vec_PtrAlloc.exit, label %8

8:                                                ; preds = %2
  %9 = sext i32 %spec.store.select.i to i64
  %10 = shl nsw i64 %9, 3
  %11 = tail call noalias ptr @malloc(i64 noundef %10) #31
  br label %Vec_PtrAlloc.exit

Vec_PtrAlloc.exit:                                ; preds = %2, %8
  %12 = phi ptr [ %11, %8 ], [ null, %2 ]
  %13 = getelementptr inbounds nuw i8, ptr %5, i64 8
  store ptr %12, ptr %13, align 8, !tbaa !76
  %14 = icmp sgt i32 %4, 0
  br i1 %14, label %.lr.ph, label %45

.lr.ph:                                           ; preds = %Vec_PtrAlloc.exit
  %15 = getelementptr i8, ptr %0, i64 8
  %16 = sext i32 %1 to i64
  %wide.trip.count = zext nneg i32 %4 to i64
  br label %17

17:                                               ; preds = %.lr.ph, %Vec_PtrPush.exit
  %indvars.iv15 = phi i64 [ 0, %.lr.ph ], [ %indvars.iv.next16, %Vec_PtrPush.exit ]
  %indvars.iv = phi i64 [ 0, %.lr.ph ], [ %indvars.iv.next, %Vec_PtrPush.exit ]
  %18 = phi i32 [ %spec.store.select.i, %.lr.ph ], [ %41, %Vec_PtrPush.exit ]
  %19 = mul nsw i64 %indvars.iv15, %16
  %.val = load ptr, ptr %15, align 8, !tbaa !84
  %20 = getelementptr inbounds i64, ptr %.val, i64 %19
  %21 = trunc nsw i64 %indvars.iv to i32
  %22 = icmp eq i32 %18, %21
  br i1 %22, label %23, label %.Vec_PtrGrow.exit11_crit_edge.i

.Vec_PtrGrow.exit11_crit_edge.i:                  ; preds = %17
  %.pre.i = load ptr, ptr %13, align 8, !tbaa !76
  br label %Vec_PtrPush.exit

23:                                               ; preds = %17
  %24 = icmp samesign ult i64 %indvars.iv, 16
  %25 = load ptr, ptr %13, align 8, !tbaa !76
  %.not9.i.i = icmp eq ptr %25, null
  br i1 %24, label %26, label %32

26:                                               ; preds = %23
  br i1 %.not9.i.i, label %29, label %27

27:                                               ; preds = %26
  %28 = tail call dereferenceable_or_null(128) ptr @realloc(ptr noundef nonnull %25, i64 noundef 128) #30
  br label %Vec_PtrGrow.exit.i

29:                                               ; preds = %26
  %30 = tail call noalias dereferenceable_or_null(128) ptr @malloc(i64 noundef 128) #31
  br label %Vec_PtrGrow.exit.i

Vec_PtrGrow.exit.i:                               ; preds = %29, %27
  %31 = phi ptr [ %28, %27 ], [ %30, %29 ]
  store ptr %31, ptr %13, align 8, !tbaa !76
  br label %Vec_PtrPush.exit

32:                                               ; preds = %23
  %33 = shl nuw nsw i64 %indvars.iv, 4
  br i1 %.not9.i.i, label %36, label %34

34:                                               ; preds = %32
  %35 = tail call ptr @realloc(ptr noundef nonnull %25, i64 noundef %33) #30
  br label %38

36:                                               ; preds = %32
  %37 = tail call noalias ptr @malloc(i64 noundef %33) #31
  br label %38

38:                                               ; preds = %36, %34
  %39 = phi ptr [ %35, %34 ], [ %37, %36 ]
  store ptr %39, ptr %13, align 8, !tbaa !76
  %indvars.iv.tr = trunc i64 %indvars.iv to i32
  %40 = shl i32 %indvars.iv.tr, 1
  br label %Vec_PtrPush.exit

Vec_PtrPush.exit:                                 ; preds = %.Vec_PtrGrow.exit11_crit_edge.i, %Vec_PtrGrow.exit.i, %38
  %41 = phi i32 [ %18, %.Vec_PtrGrow.exit11_crit_edge.i ], [ %40, %38 ], [ 16, %Vec_PtrGrow.exit.i ]
  %42 = phi ptr [ %.pre.i, %.Vec_PtrGrow.exit11_crit_edge.i ], [ %39, %38 ], [ %31, %Vec_PtrGrow.exit.i ]
  %indvars.iv.next = add nuw nsw i64 %indvars.iv, 1
  %43 = getelementptr inbounds nuw ptr, ptr %42, i64 %indvars.iv
  store ptr %20, ptr %43, align 8, !tbaa !93
  %indvars.iv.next16 = add nuw nsw i64 %indvars.iv15, 1
  %exitcond.not = icmp eq i64 %indvars.iv.next16, %wide.trip.count
  br i1 %exitcond.not, label %._crit_edge, label %17, !llvm.loop !199

._crit_edge:                                      ; preds = %Vec_PtrPush.exit
  %44 = trunc nsw i64 %indvars.iv.next to i32
  store i32 %44, ptr %7, align 4, !tbaa !73
  store i32 %41, ptr %5, align 8
  br label %45

45:                                               ; preds = %._crit_edge, %Vec_PtrAlloc.exit
  ret ptr %5
}